(dp0
I10
(lp1
(I282
F70.87580954759655
tp2
asI11
(lp3
(I357
F78.0466860472351
tp4
asI16
(lp5
(I458
F64.67141011433675
tp6
asI24
(lp7
(I442
F77.61361850530137
tp8
a(I458
F73.80797697541354
tp9
asI120
(lp10
(I186
F71.17083061007501
tp11
asI121
(lp12
(I179
F75.43809546607974
tp13
asI129
(lp14
(I179
F68.83806128085354
tp15
a(I265
F78.97181659791474
tp16
asI130
(lp17
(I180
F66.68137875875462
tp18
asI135
(lp19
(I177
F74.47714313793543
tp20
asI136
(lp21
(I178
F73.58717170207802
tp22
a(I378
F75.61383072658097
tp23
asI142
(lp24
(I460
F74.81315570505177
tp25
asI149
(lp26
(I187
F79.74948638187647
tp27
asI151
(lp28
(I129
F64.94011083420828
tp29
asI152
(lp30
(I186
F74.48658789351286
tp31
asI153
(lp32
(I187
F78.22005327474
tp33
a(I229
F78.82084599912574
tp34
a(I399
F69.98167967878778
tp35
asI154
(lp36
(I230
F78.98492566354072
tp37
asI155
(lp38
(I425
F78.51333119737215
tp39
a(I433
F75.65922892960975
tp40
asI156
(lp41
(I46
F78.2754882020557
tp42
a(I146
F75.19833381165739
tp43
a(I284
F69.33321437328763
tp44
asI157
(lp45
(I187
F74.7589225501815
tp46
a(I343
F79.43410289137601
tp47
a(I399
F75.7886623068489
tp48
asI160
(lp49
(I38
F74.55635851917548
tp50
a(I42
F70.10955335331747
tp51
a(I304
F78.16157879216746
tp52
a(I370
F76.53107698195994
tp53
a(I378
F79.56470102203988
tp54
a(I426
F73.67791864725766
tp55
a(I430
F79.63929450720762
tp56
asI161
(lp57
(I75
F78.53012816248835
tp58
a(I171
F64.54136200325502
tp59
a(I187
F73.24577246920168
tp60
a(I313
F77.16779252146777
tp61
asI162
(lp62
(I266
F64.09205393706941
tp63
asI164
(lp64
(I454
F76.20969019424047
tp65
asI179
(lp66
(I433
F78.58940757729587
tp67
a(I437
F79.88073629694216
tp68
asI220
(lp69
(I166
F79.48974610282743
tp70
asI231
(lp71
(I141
F77.19100088498637
tp72
asI235
(lp73
(I235
F73.77613095620877
tp74
asI236
(lp75
(I186
F67.90198964225624
tp76
asI237
(lp77
(I179
F79.13951845467354
tp78
asI245
(lp79
(I51
F78.89887177713771
tp80
asI247
(lp81
(I409
F65.31859362115567
tp82
asI255
(lp83
(I165
F79.27414167889357
tp84
asI257
(lp85
(I387
F68.94877299588312
tp86
asI258
(lp87
(I180
F73.04670651132483
tp88
asI259
(lp89
(I219
F79.31398990832089
tp90
a(I227
F77.63599062583316
tp91
a(I259
F74.68433985794881
tp92
asI262
(lp93
(I68
F69.10404159968506
tp94
a(I108
F77.29106552900372
tp95
a(I196
F77.4527503951228
tp96
asI263
(lp97
(I185
F74.04911711784825
tp98
asI281
(lp99
(I51
F69.33877290350677
tp100
a(I163
F74.22998485475154
tp101
a(I179
F66.35899392242696
tp102
a(I187
F77.24590514329077
tp103
a(I265
F73.2042548495599
tp104
a(I325
F72.44347119620903
tp105
a(I419
F77.6327823263507
tp106
asI282
(lp107
(I180
F75.46559123626783
tp108
a(I270
F79.61853364026999
tp109
a(I278
F79.35642131911142
tp110
asI283
(lp111
(I45
F79.86687776790426
tp112
a(I49
F79.16651516202039
tp113
a(I69
F70.92940806424437
tp114
a(I275
F76.47852919810346
tp115
a(I377
F75.25549520688102
tp116
a(I433
F74.15593434637593
tp117
asI284
(lp118
(I50
F69.21347229884358
tp119
a(I70
F74.53094117982722
tp120
a(I154
F65.38725112685805
tp121
a(I378
F71.53704721134582
tp122
asI285
(lp123
(I39
F73.47563434049107
tp124
a(I43
F70.40550152672651
tp125
a(I155
F49.01219106759345
tp126
a(I179
F64.22562135461726
tp127
a(I225
F71.62765057648046
tp128
a(I293
F77.28548745601162
tp129
a(I321
F74.67368323178133
tp130
a(I329
F79.88244066103013
tp131
a(I367
F75.36633740450387
tp132
a(I371
F68.52113090585054
tp133
a(I379
F55.918705899698566
tp134
a(I427
F73.3147029722344
tp135
a(I451
F69.78238132463115
tp136
a(I459
F75.27205617511616
tp137
asI286
(lp138
(I184
F77.06911027141189
tp139
a(I266
F71.3937456812829
tp140
a(I322
F79.87430083744432
tp141
asI287
(lp142
(I433
F72.83957798157357
tp143
asI288
(lp144
(I178
F76.3714351365367
tp145
a(I186
F78.43924040472001
tp146
asI289
(lp147
(I147
F79.08292719950438
tp148
a(I155
F77.62530644588465
tp149
a(I179
F46.74569018323789
tp150
a(I183
F69.32962562865865
tp151
a(I187
F65.60959839504818
tp152
a(I265
F61.0355213984049
tp153
a(I293
F70.11304656703066
tp154
a(I313
F66.37587703370603
tp155
asI290
(lp156
(I36
F74.95816480503983
tp157
a(I56
F71.21631575447483
tp158
a(I128
F77.61223869711378
tp159
a(I180
F53.968250471612706
tp160
a(I184
F70.5324252519589
tp161
a(I266
F64.35261801770145
tp162
a(I372
F77.14121625892795
tp163
asI291
(lp164
(I57
F79.1557411898736
tp165
a(I61
F78.96964389101369
tp166
a(I129
F64.21327434660037
tp167
a(I141
F74.27490488937084
tp168
a(I267
F79.76757651192463
tp169
asI292
(lp170
(I186
F78.84896793443657
tp171
a(I418
F77.35344990209433
tp172
asI293
(lp173
(I155
F67.44841169703005
tp174
a(I179
F52.79164256083979
tp175
a(I183
F71.78422728240082
tp176
a(I187
F64.00660114965746
tp177
a(I265
F63.54855546321949
tp178
a(I293
F71.95392462119204
tp179
a(I313
F76.55070559249305
tp180
a(I371
F79.50034745814925
tp181
asI294
(lp182
(I180
F71.4318816380936
tp183
a(I266
F72.09514235066294
tp184
asI295
(lp185
(I61
F79.50634999035587
tp186
asI296
(lp187
(I50
F75.82682852712328
tp188
a(I66
F77.75121837045837
tp189
a(I256
F79.88932808998906
tp190
a(I284
F75.04087422946262
tp191
a(I324
F69.76307061681536
tp192
a(I328
F68.30299892429316
tp193
a(I378
F76.75820273922285
tp194
a(I426
F72.3117535722174
tp195
asI297
(lp196
(I179
F58.22706410493142
tp197
a(I187
F73.73818346319595
tp198
a(I265
F66.81277298516682
tp199
a(I293
F74.33213479294827
tp200
asI298
(lp201
(I180
F69.35402806341645
tp202
asI299
(lp203
(I45
F79.87967138762221
tp204
a(I49
F76.02088376959969
tp205
a(I69
F72.546178541699
tp206
a(I425
F78.27763790096003
tp207
a(I433
F74.39197608269764
tp208
asI300
(lp209
(I50
F74.20135591501337
tp210
a(I146
F77.63797206332423
tp211
a(I154
F77.599371258096
tp212
a(I284
F76.10138837065759
tp213
a(I300
F79.79655582831603
tp214
a(I304
F73.03091383621123
tp215
a(I312
F68.74447668350828
tp216
a(I324
F70.91853672358036
tp217
a(I328
F63.97510708333144
tp218
a(I378
F66.12906039121779
tp219
asI301
(lp220
(I147
F78.97465256824188
tp221
a(I155
F76.43487378626811
tp222
a(I171
F78.9645901218832
tp223
a(I179
F51.377716604751754
tp224
a(I183
F66.29372421532769
tp225
a(I187
F60.17352898875585
tp226
a(I265
F66.5932927888924
tp227
a(I293
F61.58577142466635
tp228
a(I313
F61.73367462491683
tp229
asI302
(lp230
(I36
F78.41123648030151
tp231
a(I180
F60.241951398618355
tp232
a(I184
F76.29176935930863
tp233
a(I266
F74.87631751513726
tp234
asI303
(lp235
(I129
F66.87956609526117
tp236
a(I185
F76.94126313217237
tp237
asI304
(lp238
(I186
F74.95999627109232
tp239
a(I300
F76.4022581483935
tp240
asI305
(lp241
(I179
F54.22934756639316
tp242
a(I183
F61.46827307561357
tp243
a(I187
F65.63475503315397
tp244
a(I265
F79.47485674948112
tp245
a(I293
F66.28614750439547
tp246
a(I313
F65.61488860973719
tp247
a(I321
F79.73073903672172
tp248
a(I335
F78.63352881522331
tp249
a(I343
F77.7569492008873
tp250
asI306
(lp251
(I180
F74.39133013437709
tp252
a(I306
F70.19362854762483
tp253
asI307
(lp254
(I307
F73.17429071541088
tp255
a(I377
F78.90381908770541
tp256
asI308
(lp257
(I300
F79.06797537335082
tp258
a(I304
F72.35711860913682
tp259
a(I370
F76.83509139146379
tp260
a(I378
F59.4444578452849
tp261
asI309
(lp262
(I179
F63.10649691489969
tp263
a(I187
F76.9933035618397
tp264
a(I293
F75.57831726450084
tp265
a(I321
F77.34523998902222
tp266
a(I325
F76.28700964624177
tp267
a(I343
F78.45294643160632
tp268
a(I419
F74.91416124002247
tp269
asI310
(lp270
(I36
F79.16329660121741
tp271
a(I180
F59.4573110896703
tp272
asI311
(lp273
(I49
F77.28085428958053
tp274
a(I69
F63.5463347627003
tp275
a(I275
F73.9463062158016
tp276
asI312
(lp277
(I74
F70.11100726083224
tp278
a(I186
F78.69323176856403
tp279
a(I276
F74.44188549788316
tp280
a(I284
F76.91305613616731
tp281
a(I300
F58.712400029050016
tp282
a(I304
F75.65879425369374
tp283
a(I378
F77.60308884203586
tp284
asI313
(lp285
(I301
F74.54238408308781
tp286
a(I305
F77.49597911493758
tp287
a(I403
F75.96203030556133
tp288
asI314
(lp289
(I52
F79.96321145210054
tp290
a(I258
F79.54623282689795
tp291
asI318
(lp292
(I270
F77.0739214437715
tp293
a(I278
F77.46083202172791
tp294
asI320
(lp295
(I374
F78.68837337880885
tp296
asI321
(lp297
(I281
F64.65724834744407
tp298
a(I375
F74.16590050662404
tp299
asI322
(lp300
(I36
F79.31817758178116
tp301
a(I52
F79.49895052596082
tp302
a(I68
F76.21659417502285
tp303
a(I266
F77.01311806193351
tp304
a(I314
F77.87629404685676
tp305
a(I322
F77.69010735555901
tp306
a(I326
F75.28356191105239
tp307
a(I344
F75.30289337555797
tp308
asI323
(lp309
(I287
F73.84588100000462
tp310
a(I341
F74.23607562728003
tp311
asI324
(lp312
(I300
F79.70861632519748
tp313
asI325
(lp314
(I313
F78.98754154353153
tp315
a(I335
F77.08557975213819
tp316
asI326
(lp317
(I314
F76.32018222925532
tp318
asI329
(lp319
(I305
F76.34329151867735
tp320
a(I321
F78.24081099990781
tp321
asI330
(lp322
(I326
F78.77206490147108
tp323
asI331
(lp324
(I129
F77.51900142401516
tp325
a(I341
F73.27487091636752
tp326
asI332
(lp327
(I324
F77.83191861860716
tp328
asI333
(lp329
(I35
F79.96024459957401
tp330
a(I249
F76.50629514091814
tp331
a(I257
F70.6060121579616
tp332
a(I325
F75.60042187420106
tp333
a(I329
F78.11169633495993
tp334
a(I371
F66.59446953087455
tp335
a(I379
F75.49358035598945
tp336
a(I419
F71.05343495854827
tp337
a(I427
F65.78400053315008
tp338
a(I431
F70.97475881065273
tp339
a(I451
F61.594460825394
tp340
a(I455
F73.54790224913546
tp341
a(I459
F76.99384446233717
tp342
asI334
(lp343
(I266
F78.37151228964011
tp344
a(I420
F63.05695054384039
tp345
a(I428
F65.440677239478
tp346
a(I432
F78.25002072961483
tp347
asI335
(lp348
(I121
F56.815125126883935
tp349
a(I291
F69.70793169899412
tp350
a(I299
F62.76274702997483
tp351
a(I319
F72.79441974686881
tp352
a(I377
F78.32213433078594
tp353
a(I381
F67.46404557653791
tp354
a(I393
F73.38919480455374
tp355
a(I397
F69.71323977321563
tp356
a(I401
F56.97794614025098
tp357
a(I441
F73.68013262515002
tp358
a(I461
F79.85521053780599
tp359
asI336
(lp360
(I38
F79.24900191945844
tp361
a(I122
F77.55491077281992
tp362
a(I292
F62.785094436911265
tp363
a(I328
F72.78074536382934
tp364
a(I334
F74.77065419982928
tp365
a(I370
F69.66638704736842
tp366
a(I402
F76.01314379516899
tp367
asI337
(lp368
(I183
F68.60073019875401
tp369
a(I187
F75.1093183194483
tp370
a(I293
F68.49405248369186
tp371
a(I301
F71.69292467653975
tp372
a(I313
F75.74506544403457
tp373
a(I325
F74.86677177008173
tp374
a(I329
F68.01564326715662
tp375
a(I343
F74.45268017843401
tp376
asI338
(lp377
(I184
F79.69314323290229
tp378
a(I330
F79.79144541102143
tp379
asI339
(lp380
(I341
F70.76467156333621
tp381
asI341
(lp382
(I335
F79.4910038920195
tp383
asI342
(lp384
(I330
F77.91273534496108
tp385
a(I336
F75.81208411762006
tp386
asI345
(lp387
(I301
F66.29488294391703
tp388
a(I343
F73.25867746615849
tp389
a(I415
F78.68622731524367
tp390
asI350
(lp391
(I330
F78.00733962399325
tp392
asI367
(lp393
(I235
F79.88472877317292
tp394
asI369
(lp395
(I179
F75.05741148534597
tp396
asI370
(lp397
(I172
F73.22134549244484
tp398
asI371
(lp399
(I165
F77.45854887417771
tp400
a(I223
F78.34139165229023
tp401
asI376
(lp402
(I186
F72.56228945218726
tp403
asI378
(lp404
(I68
F78.90261955338197
tp405
a(I108
F79.95637002063586
tp406
a(I196
F79.70402243703947
tp407
a(I270
F76.00328880641652
tp408
asI383
(lp409
(I275
F70.12796785009283
tp410
asI384
(lp411
(I178
F72.67484036729125
tp412
asI385
(lp413
(I179
F74.41423978963198
tp414
asI387
(lp415
(I141
F79.75457380020252
tp416
a(I165
F77.0577846761039
tp417
asI388
(lp418
(I332
F78.0246633114052
tp419
asI389
(lp420
(I233
F57.67177872694083
tp421
a(I289
F76.7067949898611
tp422
a(I309
F66.50890781457021
tp423
a(I333
F66.25044765976756
tp424
a(I383
F77.32107738484592
tp425
asI390
(lp426
(I234
F67.6177935641949
tp427
a(I298
F61.189522287031075
tp428
a(I380
F77.74297083442625
tp429
asI395
(lp430
(I141
F69.2488800756608
tp431
asI398
(lp432
(I330
F68.93273865969104
tp433
asI399
(lp434
(I409
F78.86512326562023
tp435
asI400
(lp436
(I240
F70.48789394650889
tp437
asI401
(lp438
(I343
F73.57991501303273
tp439
asI409
(lp440
(I391
F73.22231378604477
tp441
asI413
(lp442
(I301
F79.32977553067056
tp443
asI415
(lp444
(I409
F78.76447954524757
tp445
asI416
(lp446
(I240
F79.6896266287671
tp447
asI419
(lp448
(I137
F78.48280604257405
tp449
a(I279
F72.28109361834665
tp450
a(I307
F71.86570230109494
tp451
asI421
(lp452
(I335
F76.4728765434578
tp453
a(I435
F75.26771243781198
tp454
asI422
(lp455
(I160
F76.15807261005128
tp456
a(I226
F79.44375047527936
tp457
a(I234
F58.175876636511184
tp458
a(I298
F68.28349817181692
tp459
a(I306
F76.43114045386451
tp460
a(I336
F65.71111542443815
tp461
a(I356
F72.90387104573635
tp462
a(I424
F75.7670873303927
tp463
a(I436
F71.38007613356882
tp464
a(I456
F78.33596564718735
tp465
a(I460
F56.769014866122355
tp466
asI423
(lp467
(I121
F78.46813270174901
tp468
a(I169
F67.84389585237182
tp469
a(I389
F76.22817988913863
tp470
a(I405
F72.68024199204427
tp471
a(I413
F73.65365352547215
tp472
asI430
(lp473
(I330
F58.87177417306587
tp474
asI437
(lp475
(I391
F74.2257664031097
tp476
asI442
(lp477
(I392
F74.41842176715387
tp478
as.