(dp0
I35
(lp1
(I333
F79.96024459957401
tp2
asI36
(lp3
(I290
F74.95816480503983
tp4
a(I302
F78.41123648030151
tp5
a(I310
F79.16329660121741
tp6
a(I322
F79.31817758178116
tp7
asI38
(lp8
(I160
F74.55635851917548
tp9
a(I336
F79.24900191945844
tp10
asI39
(lp11
(I285
F73.47563434049107
tp12
asI42
(lp13
(I160
F70.10955335331747
tp14
asI43
(lp15
(I285
F70.40550152672651
tp16
asI45
(lp17
(I283
F79.86687776790426
tp18
a(I299
F79.87967138762221
tp19
asI46
(lp20
(I156
F78.2754882020557
tp21
asI49
(lp22
(I283
F79.16651516202039
tp23
a(I299
F76.02088376959969
tp24
a(I311
F77.28085428958053
tp25
asI50
(lp26
(I284
F69.21347229884358
tp27
a(I296
F75.82682852712328
tp28
a(I300
F74.20135591501337
tp29
asI51
(lp30
(I245
F78.89887177713771
tp31
a(I281
F69.33877290350677
tp32
asI52
(lp33
(I314
F79.96321145210054
tp34
a(I322
F79.49895052596082
tp35
asI56
(lp36
(I290
F71.21631575447483
tp37
asI57
(lp38
(I291
F79.1557411898736
tp39
asI61
(lp40
(I291
F78.96964389101369
tp41
a(I295
F79.50634999035587
tp42
asI66
(lp43
(I296
F77.75121837045837
tp44
asI68
(lp45
(I262
F69.10404159968506
tp46
a(I322
F76.21659417502285
tp47
a(I378
F78.90261955338197
tp48
asI69
(lp49
(I283
F70.92940806424437
tp50
a(I299
F72.546178541699
tp51
a(I311
F63.5463347627003
tp52
asI70
(lp53
(I284
F74.53094117982722
tp54
asI74
(lp55
(I312
F70.11100726083224
tp56
asI75
(lp57
(I161
F78.53012816248835
tp58
asI108
(lp59
(I262
F77.29106552900372
tp60
a(I378
F79.95637002063586
tp61
asI121
(lp62
(I335
F56.815125126883935
tp63
a(I423
F78.46813270174901
tp64
asI122
(lp65
(I336
F77.55491077281992
tp66
asI128
(lp67
(I290
F77.61223869711378
tp68
asI129
(lp69
(I151
F64.94011083420828
tp70
a(I291
F64.21327434660037
tp71
a(I303
F66.87956609526117
tp72
a(I331
F77.51900142401516
tp73
asI137
(lp74
(I419
F78.48280604257405
tp75
asI141
(lp76
(I231
F77.19100088498637
tp77
a(I291
F74.27490488937084
tp78
a(I387
F79.75457380020252
tp79
a(I395
F69.2488800756608
tp80
asI146
(lp81
(I156
F75.19833381165739
tp82
a(I300
F77.63797206332423
tp83
asI147
(lp84
(I289
F79.08292719950438
tp85
a(I301
F78.97465256824188
tp86
asI154
(lp87
(I284
F65.38725112685805
tp88
a(I300
F77.599371258096
tp89
asI155
(lp90
(I285
F49.01219106759345
tp91
a(I289
F77.62530644588465
tp92
a(I293
F67.44841169703005
tp93
a(I301
F76.43487378626811
tp94
asI160
(lp95
(I422
F76.15807261005128
tp96
asI163
(lp97
(I281
F74.22998485475154
tp98
asI165
(lp99
(I255
F79.27414167889357
tp100
a(I371
F77.45854887417771
tp101
a(I387
F77.0577846761039
tp102
asI166
(lp103
(I220
F79.48974610282743
tp104
asI169
(lp105
(I423
F67.84389585237182
tp106
asI171
(lp107
(I161
F64.54136200325502
tp108
a(I301
F78.9645901218832
tp109
asI172
(lp110
(I370
F73.22134549244484
tp111
asI177
(lp112
(I135
F74.47714313793543
tp113
asI178
(lp114
(I136
F73.58717170207802
tp115
a(I288
F76.3714351365367
tp116
a(I384
F72.67484036729125
tp117
asI179
(lp118
(I121
F75.43809546607974
tp119
a(I129
F68.83806128085354
tp120
a(I237
F79.13951845467354
tp121
a(I281
F66.35899392242696
tp122
a(I285
F64.22562135461726
tp123
a(I289
F46.74569018323789
tp124
a(I293
F52.79164256083979
tp125
a(I297
F58.22706410493142
tp126
a(I301
F51.377716604751754
tp127
a(I305
F54.22934756639316
tp128
a(I309
F63.10649691489969
tp129
a(I369
F75.05741148534597
tp130
a(I385
F74.41423978963198
tp131
asI180
(lp132
(I130
F66.68137875875462
tp133
a(I258
F73.04670651132483
tp134
a(I282
F75.46559123626783
tp135
a(I290
F53.968250471612706
tp136
a(I294
F71.4318816380936
tp137
a(I298
F69.35402806341645
tp138
a(I302
F60.241951398618355
tp139
a(I306
F74.39133013437709
tp140
a(I310
F59.4573110896703
tp141
asI183
(lp142
(I289
F69.32962562865865
tp143
a(I293
F71.78422728240082
tp144
a(I301
F66.29372421532769
tp145
a(I305
F61.46827307561357
tp146
a(I337
F68.60073019875401
tp147
asI184
(lp148
(I286
F77.06911027141189
tp149
a(I290
F70.5324252519589
tp150
a(I302
F76.29176935930863
tp151
a(I338
F79.69314323290229
tp152
asI185
(lp153
(I263
F74.04911711784825
tp154
a(I303
F76.94126313217237
tp155
asI186
(lp156
(I120
F71.17083061007501
tp157
a(I152
F74.48658789351286
tp158
a(I236
F67.90198964225624
tp159
a(I288
F78.43924040472001
tp160
a(I292
F78.84896793443657
tp161
a(I304
F74.95999627109232
tp162
a(I312
F78.69323176856403
tp163
a(I376
F72.56228945218726
tp164
asI187
(lp165
(I149
F79.74948638187647
tp166
a(I153
F78.22005327474
tp167
a(I157
F74.7589225501815
tp168
a(I161
F73.24577246920168
tp169
a(I281
F77.24590514329077
tp170
a(I289
F65.60959839504818
tp171
a(I293
F64.00660114965746
tp172
a(I297
F73.73818346319595
tp173
a(I301
F60.17352898875585
tp174
a(I305
F65.63475503315397
tp175
a(I309
F76.9933035618397
tp176
a(I337
F75.1093183194483
tp177
asI196
(lp178
(I262
F77.4527503951228
tp179
a(I378
F79.70402243703947
tp180
asI219
(lp181
(I259
F79.31398990832089
tp182
asI223
(lp183
(I371
F78.34139165229023
tp184
asI225
(lp185
(I285
F71.62765057648046
tp186
asI226
(lp187
(I422
F79.44375047527936
tp188
asI227
(lp189
(I259
F77.63599062583316
tp190
asI229
(lp191
(I153
F78.82084599912574
tp192
asI230
(lp193
(I154
F78.98492566354072
tp194
asI233
(lp195
(I389
F57.67177872694083
tp196
asI234
(lp197
(I390
F67.6177935641949
tp198
a(I422
F58.175876636511184
tp199
asI235
(lp200
(I235
F73.77613095620877
tp201
a(I367
F79.88472877317292
tp202
asI240
(lp203
(I400
F70.48789394650889
tp204
a(I416
F79.6896266287671
tp205
asI249
(lp206
(I333
F76.50629514091814
tp207
asI256
(lp208
(I296
F79.88932808998906
tp209
asI257
(lp210
(I333
F70.6060121579616
tp211
asI258
(lp212
(I314
F79.54623282689795
tp213
asI259
(lp214
(I259
F74.68433985794881
tp215
asI265
(lp216
(I129
F78.97181659791474
tp217
a(I281
F73.2042548495599
tp218
a(I289
F61.0355213984049
tp219
a(I293
F63.54855546321949
tp220
a(I297
F66.81277298516682
tp221
a(I301
F66.5932927888924
tp222
a(I305
F79.47485674948112
tp223
asI266
(lp224
(I162
F64.09205393706941
tp225
a(I286
F71.3937456812829
tp226
a(I290
F64.35261801770145
tp227
a(I294
F72.09514235066294
tp228
a(I302
F74.87631751513726
tp229
a(I322
F77.01311806193351
tp230
a(I334
F78.37151228964011
tp231
asI267
(lp232
(I291
F79.76757651192463
tp233
asI270
(lp234
(I282
F79.61853364026999
tp235
a(I318
F77.0739214437715
tp236
a(I378
F76.00328880641652
tp237
asI275
(lp238
(I283
F76.47852919810346
tp239
a(I311
F73.9463062158016
tp240
a(I383
F70.12796785009283
tp241
asI276
(lp242
(I312
F74.44188549788316
tp243
asI278
(lp244
(I282
F79.35642131911142
tp245
a(I318
F77.46083202172791
tp246
asI279
(lp247
(I419
F72.28109361834665
tp248
asI281
(lp249
(I321
F64.65724834744407
tp250
asI282
(lp251
(I10
F70.87580954759655
tp252
asI284
(lp253
(I156
F69.33321437328763
tp254
a(I296
F75.04087422946262
tp255
a(I300
F76.10138837065759
tp256
a(I312
F76.91305613616731
tp257
asI287
(lp258
(I323
F73.84588100000462
tp259
asI289
(lp260
(I389
F76.7067949898611
tp261
asI291
(lp262
(I335
F69.70793169899412
tp263
asI292
(lp264
(I336
F62.785094436911265
tp265
asI293
(lp266
(I285
F77.28548745601162
tp267
a(I289
F70.11304656703066
tp268
a(I293
F71.95392462119204
tp269
a(I297
F74.33213479294827
tp270
a(I301
F61.58577142466635
tp271
a(I305
F66.28614750439547
tp272
a(I309
F75.57831726450084
tp273
a(I337
F68.49405248369186
tp274
asI298
(lp275
(I390
F61.189522287031075
tp276
a(I422
F68.28349817181692
tp277
asI299
(lp278
(I335
F62.76274702997483
tp279
asI300
(lp280
(I300
F79.79655582831603
tp281
a(I304
F76.4022581483935
tp282
a(I308
F79.06797537335082
tp283
a(I312
F58.712400029050016
tp284
a(I324
F79.70861632519748
tp285
asI301
(lp286
(I313
F74.54238408308781
tp287
a(I337
F71.69292467653975
tp288
a(I345
F66.29488294391703
tp289
a(I413
F79.32977553067056
tp290
asI304
(lp291
(I160
F78.16157879216746
tp292
a(I300
F73.03091383621123
tp293
a(I308
F72.35711860913682
tp294
a(I312
F75.65879425369374
tp295
asI305
(lp296
(I313
F77.49597911493758
tp297
a(I329
F76.34329151867735
tp298
asI306
(lp299
(I306
F70.19362854762483
tp300
a(I422
F76.43114045386451
tp301
asI307
(lp302
(I307
F73.17429071541088
tp303
a(I419
F71.86570230109494
tp304
asI309
(lp305
(I389
F66.50890781457021
tp306
asI312
(lp307
(I300
F68.74447668350828
tp308
asI313
(lp309
(I161
F77.16779252146777
tp310
a(I289
F66.37587703370603
tp311
a(I293
F76.55070559249305
tp312
a(I301
F61.73367462491683
tp313
a(I305
F65.61488860973719
tp314
a(I325
F78.98754154353153
tp315
a(I337
F75.74506544403457
tp316
asI314
(lp317
(I322
F77.87629404685676
tp318
a(I326
F76.32018222925532
tp319
asI319
(lp320
(I335
F72.79441974686881
tp321
asI321
(lp322
(I285
F74.67368323178133
tp323
a(I305
F79.73073903672172
tp324
a(I309
F77.34523998902222
tp325
a(I329
F78.24081099990781
tp326
asI322
(lp327
(I286
F79.87430083744432
tp328
a(I322
F77.69010735555901
tp329
asI324
(lp330
(I296
F69.76307061681536
tp331
a(I300
F70.91853672358036
tp332
a(I332
F77.83191861860716
tp333
asI325
(lp334
(I281
F72.44347119620903
tp335
a(I309
F76.28700964624177
tp336
a(I333
F75.60042187420106
tp337
a(I337
F74.86677177008173
tp338
asI326
(lp339
(I322
F75.28356191105239
tp340
a(I330
F78.77206490147108
tp341
asI328
(lp342
(I296
F68.30299892429316
tp343
a(I300
F63.97510708333144
tp344
a(I336
F72.78074536382934
tp345
asI329
(lp346
(I285
F79.88244066103013
tp347
a(I333
F78.11169633495993
tp348
a(I337
F68.01564326715662
tp349
asI330
(lp350
(I338
F79.79144541102143
tp351
a(I342
F77.91273534496108
tp352
a(I350
F78.00733962399325
tp353
a(I398
F68.93273865969104
tp354
a(I430
F58.87177417306587
tp355
asI332
(lp356
(I388
F78.0246633114052
tp357
asI333
(lp358
(I389
F66.25044765976756
tp359
asI334
(lp360
(I336
F74.77065419982928
tp361
asI335
(lp362
(I305
F78.63352881522331
tp363
a(I325
F77.08557975213819
tp364
a(I341
F79.4910038920195
tp365
a(I421
F76.4728765434578
tp366
asI336
(lp367
(I342
F75.81208411762006
tp368
a(I422
F65.71111542443815
tp369
asI341
(lp370
(I323
F74.23607562728003
tp371
a(I331
F73.27487091636752
tp372
a(I339
F70.76467156333621
tp373
asI343
(lp374
(I157
F79.43410289137601
tp375
a(I305
F77.7569492008873
tp376
a(I309
F78.45294643160632
tp377
a(I337
F74.45268017843401
tp378
a(I345
F73.25867746615849
tp379
a(I401
F73.57991501303273
tp380
asI344
(lp381
(I322
F75.30289337555797
tp382
asI356
(lp383
(I422
F72.90387104573635
tp384
asI357
(lp385
(I11
F78.0466860472351
tp386
asI367
(lp387
(I285
F75.36633740450387
tp388
asI370
(lp389
(I160
F76.53107698195994
tp390
a(I308
F76.83509139146379
tp391
a(I336
F69.66638704736842
tp392
asI371
(lp393
(I285
F68.52113090585054
tp394
a(I293
F79.50034745814925
tp395
a(I333
F66.59446953087455
tp396
asI372
(lp397
(I290
F77.14121625892795
tp398
asI374
(lp399
(I320
F78.68837337880885
tp400
asI375
(lp401
(I321
F74.16590050662404
tp402
asI377
(lp403
(I283
F75.25549520688102
tp404
a(I307
F78.90381908770541
tp405
a(I335
F78.32213433078594
tp406
asI378
(lp407
(I136
F75.61383072658097
tp408
a(I160
F79.56470102203988
tp409
a(I284
F71.53704721134582
tp410
a(I296
F76.75820273922285
tp411
a(I300
F66.12906039121779
tp412
a(I308
F59.4444578452849
tp413
a(I312
F77.60308884203586
tp414
asI379
(lp415
(I285
F55.918705899698566
tp416
a(I333
F75.49358035598945
tp417
asI380
(lp418
(I390
F77.74297083442625
tp419
asI381
(lp420
(I335
F67.46404557653791
tp421
asI383
(lp422
(I389
F77.32107738484592
tp423
asI387
(lp424
(I257
F68.94877299588312
tp425
asI389
(lp426
(I423
F76.22817988913863
tp427
asI391
(lp428
(I409
F73.22231378604477
tp429
a(I437
F74.2257664031097
tp430
asI392
(lp431
(I442
F74.41842176715387
tp432
asI393
(lp433
(I335
F73.38919480455374
tp434
asI397
(lp435
(I335
F69.71323977321563
tp436
asI399
(lp437
(I153
F69.98167967878778
tp438
a(I157
F75.7886623068489
tp439
asI401
(lp440
(I335
F56.97794614025098
tp441
asI402
(lp442
(I336
F76.01314379516899
tp443
asI403
(lp444
(I313
F75.96203030556133
tp445
asI405
(lp446
(I423
F72.68024199204427
tp447
asI409
(lp448
(I247
F65.31859362115567
tp449
a(I399
F78.86512326562023
tp450
a(I415
F78.76447954524757
tp451
asI413
(lp452
(I423
F73.65365352547215
tp453
asI415
(lp454
(I345
F78.68622731524367
tp455
asI418
(lp456
(I292
F77.35344990209433
tp457
asI419
(lp458
(I281
F77.6327823263507
tp459
a(I309
F74.91416124002247
tp460
a(I333
F71.05343495854827
tp461
asI420
(lp462
(I334
F63.05695054384039
tp463
asI424
(lp464
(I422
F75.7670873303927
tp465
asI425
(lp466
(I155
F78.51333119737215
tp467
a(I299
F78.27763790096003
tp468
asI426
(lp469
(I160
F73.67791864725766
tp470
a(I296
F72.3117535722174
tp471
asI427
(lp472
(I285
F73.3147029722344
tp473
a(I333
F65.78400053315008
tp474
asI428
(lp475
(I334
F65.440677239478
tp476
asI430
(lp477
(I160
F79.63929450720762
tp478
asI431
(lp479
(I333
F70.97475881065273
tp480
asI432
(lp481
(I334
F78.25002072961483
tp482
asI433
(lp483
(I155
F75.65922892960975
tp484
a(I179
F78.58940757729587
tp485
a(I283
F74.15593434637593
tp486
a(I287
F72.83957798157357
tp487
a(I299
F74.39197608269764
tp488
asI435
(lp489
(I421
F75.26771243781198
tp490
asI436
(lp491
(I422
F71.38007613356882
tp492
asI437
(lp493
(I179
F79.88073629694216
tp494
asI441
(lp495
(I335
F73.68013262515002
tp496
asI442
(lp497
(I24
F77.61361850530137
tp498
asI451
(lp499
(I285
F69.78238132463115
tp500
a(I333
F61.594460825394
tp501
asI454
(lp502
(I164
F76.20969019424047
tp503
asI455
(lp504
(I333
F73.54790224913546
tp505
asI456
(lp506
(I422
F78.33596564718735
tp507
asI458
(lp508
(I16
F64.67141011433675
tp509
a(I24
F73.80797697541354
tp510
asI459
(lp511
(I285
F75.27205617511616
tp512
a(I333
F76.99384446233717
tp513
asI460
(lp514
(I142
F74.81315570505177
tp515
a(I422
F56.769014866122355
tp516
asI461
(lp517
(I335
F79.85521053780599
tp518
as.