(lp0
(dp1
I0
(lp2
(I8
F79.11122082284
tp3
a(I24
F75.9573602573065
tp4
asI1
(lp5
(I9
F53.35156478143228
tp6
a(I17
F27.27463625845956
tp7
a(I25
F26.025679735110224
tp8
a(I29
F79.01538300508024
tp9
asI2
(lp10
(I10
F48.64689762826584
tp11
a(I18
F20.26639207646872
tp12
a(I26
F27.868345448051567
tp13
asI3
(lp14
(I11
F18.734601947535815
tp15
a(I19
F19.79156217810294
tp16
a(I27
F23.435293820889722
tp17
asI4
(lp18
(I12
F16.288825100730257
tp19
a(I20
F23.469975220402883
tp20
a(I28
F29.323679964406693
tp21
asI5
(lp22
(I9
F66.20081469639057
tp23
a(I13
F22.405323708851455
tp24
a(I17
F71.42409248468162
tp25
a(I21
F20.222688641933047
tp26
a(I25
F75.12848248742574
tp27
a(I29
F28.06061702322796
tp28
asI6
(lp29
(I14
F39.87337910222967
tp30
a(I22
F28.504802035472938
tp31
a(I30
F45.144620181718295
tp32
asI7
(lp33
(I15
F18.3624295934022
tp34
a(I23
F19.83642146039247
tp35
asI8
(lp36
(I0
F79.11122082284
tp37
a(I16
F12.520923826862749
tp38
a(I24
F15.242150328390757
tp39
asI9
(lp40
(I1
F53.35156478143228
tp41
a(I5
F66.20081469639057
tp42
a(I13
F64.54676032316615
tp43
a(I17
F37.386831594888974
tp44
a(I21
F68.4695492762226
tp45
a(I25
F40.9288620991861
tp46
a(I29
F71.17934424627099
tp47
asI10
(lp48
(I2
F48.64689762826584
tp49
a(I18
F52.30215429753697
tp50
a(I26
F48.09423432232123
tp51
asI11
(lp52
(I3
F18.734601947535815
tp53
a(I19
F14.892221587079694
tp54
a(I27
F22.20966775235056
tp55
asI12
(lp56
(I4
F16.288825100730257
tp57
a(I20
F17.49612477474562
tp58
a(I28
F25.23951179506766
tp59
asI13
(lp60
(I5
F22.405323708851455
tp61
a(I9
F64.54676032316615
tp62
a(I17
F69.51899446889156
tp63
a(I21
F20.257940565515757
tp64
a(I25
F74.60486601980178
tp65
a(I29
F24.084354260629585
tp66
asI14
(lp67
(I6
F39.87337910222967
tp68
a(I22
F39.89029704563693
tp69
a(I30
F21.002171970907636
tp70
asI15
(lp71
(I7
F18.3624295934022
tp72
a(I23
F20.419234544909408
tp73
asI16
(lp74
(I8
F12.520923826862749
tp75
a(I24
F16.719039937126126
tp76
asI17
(lp77
(I1
F27.27463625845956
tp78
a(I5
F71.42409248468162
tp79
a(I9
F37.386831594888974
tp80
a(I13
F69.51899446889156
tp81
a(I21
F73.76829757012656
tp82
a(I25
F23.88590242647602
tp83
a(I29
F74.21637172514782
tp84
asI18
(lp85
(I2
F20.26639207646872
tp86
a(I10
F52.30215429753697
tp87
a(I26
F25.73410305783776
tp88
asI19
(lp89
(I3
F19.79156217810294
tp90
a(I11
F14.892221587079694
tp91
a(I27
F23.97675520328582
tp92
asI20
(lp93
(I4
F23.469975220402883
tp94
a(I12
F17.49612477474562
tp95
a(I28
F17.45256800382287
tp96
asI21
(lp97
(I5
F20.222688641933047
tp98
a(I9
F68.4695492762226
tp99
a(I13
F20.257940565515757
tp100
a(I17
F73.76829757012656
tp101
a(I25
F75.46554599591668
tp102
a(I29
F26.268664196315246
tp103
asI22
(lp104
(I6
F28.504802035472938
tp105
a(I14
F39.89029704563693
tp106
a(I30
F42.452392767867856
tp107
asI23
(lp108
(I7
F19.83642146039247
tp109
a(I15
F20.419234544909408
tp110
asI24
(lp111
(I0
F75.9573602573065
tp112
a(I8
F15.242150328390757
tp113
a(I16
F16.719039937126126
tp114
asI25
(lp115
(I1
F26.025679735110224
tp116
a(I5
F75.12848248742574
tp117
a(I9
F40.9288620991861
tp118
a(I13
F74.60486601980178
tp119
a(I17
F23.88590242647602
tp120
a(I21
F75.46554599591668
tp121
a(I29
F75.8950658384499
tp122
asI26
(lp123
(I2
F27.868345448051567
tp124
a(I10
F48.09423432232123
tp125
a(I18
F25.73410305783776
tp126
asI27
(lp127
(I3
F23.435293820889722
tp128
a(I11
F22.20966775235056
tp129
a(I19
F23.97675520328582
tp130
asI28
(lp131
(I4
F29.323679964406693
tp132
a(I12
F25.23951179506766
tp133
a(I20
F17.45256800382287
tp134
asI29
(lp135
(I1
F79.01538300508024
tp136
a(I5
F28.06061702322796
tp137
a(I9
F71.17934424627099
tp138
a(I13
F24.084354260629585
tp139
a(I17
F74.21637172514782
tp140
a(I21
F26.268664196315246
tp141
a(I25
F75.8950658384499
tp142
asI30
(lp143
(I6
F45.144620181718295
tp144
a(I14
F21.002171970907636
tp145
a(I22
F42.452392767867856
tp146
asI260
(lp147
(I52
F78.21127223087734
tp148
asI133
(lp149
(I117
F77.11417232367097
tp150
asI304
(lp151
(I312
F48.57843895390722
tp152
asI163
(lp153
(I151
F76.44647530802006
tp154
asI165
(lp155
(I117
F78.15877155023068
tp156
asI305
(lp157
(I297
F21.6513034304894
tp158
a(I313
F23.866702384841503
tp159
asI40
(lp160
(I48
F79.60117664808209
tp161
a(I228
F78.58587751746592
tp162
asI156
(lp163
(I124
F69.34205629891686
tp164
asI299
(lp165
(I291
F34.26074231905328
tp166
a(I307
F31.44616878070685
tp167
asI300
(lp168
(I308
F28.479690232537017
tp169
asI301
(lp170
(I309
F26.812968335710735
tp171
asI307
(lp172
(I291
F22.93617069625118
tp173
a(I299
F31.44616878070685
tp174
asI175
(lp175
(I191
F71.21513493830743
tp176
asI48
(lp177
(I40
F79.60117664808209
tp178
a(I64
F75.27520484285328
tp179
asI264
(lp180
(I232
F69.34342807459618
tp181
asI178
(lp182
(I194
F70.52588505262827
tp183
a(I222
F78.91445416204304
tp184
asI128
(lp185
(I224
F77.38458075709211
tp186
asI52
(lp187
(I260
F78.21127223087734
tp188
asI309
(lp189
(I301
F26.812968335710735
tp190
asI182
(lp191
(I90
F79.43188594484063
tp192
asI311
(lp193
(I303
F37.143763928099965
tp194
asI312
(lp195
(I304
F48.57843895390722
tp196
asI313
(lp197
(I297
F17.910812118826478
tp198
a(I305
F23.866702384841503
tp199
asI314
(lp200
(I302
F68.34554185409729
tp201
a(I306
F26.813581270826166
tp202
asI159
(lp203
(I143
F73.48643398202366
tp204
asI151
(lp205
(I163
F76.44647530802006
tp206
asI191
(lp207
(I175
F71.21513493830743
tp208
asI64
(lp209
(I48
F75.27520484285328
tp210
asI194
(lp211
(I178
F70.52588505262827
tp212
asI308
(lp213
(I300
F28.479690232537017
tp214
asI310
(lp215
(I302
F70.82337189744277
tp216
asI258
(lp217
(I242
F78.56815853240859
tp218
asI262
(lp219
(I230
F78.93567376429992
tp220
asI205
(lp221
(I285
F65.57998750690858
tp222
asI291
(lp223
(I299
F34.26074231905328
tp224
a(I307
F22.93617069625118
tp225
asI303
(lp226
(I311
F37.143763928099965
tp227
asI90
(lp228
(I182
F79.43188594484063
tp229
asI143
(lp230
(I127
F61.34319764576211
tp231
a(I159
F73.48643398202366
tp232
asI222
(lp233
(I178
F78.91445416204304
tp234
a(I238
F72.16205474504996
tp235
asI224
(lp236
(I128
F77.38458075709211
tp237
asI228
(lp238
(I40
F78.58587751746592
tp239
asI230
(lp240
(I262
F78.93567376429992
tp241
asI232
(lp242
(I264
F69.34342807459618
tp243
asI306
(lp244
(I302
F64.06940051872965
tp245
a(I314
F26.813581270826166
tp246
asI238
(lp247
(I222
F72.16205474504996
tp248
asI242
(lp249
(I258
F78.56815853240859
tp250
asI302
(lp251
(I306
F64.06940051872965
tp252
a(I310
F70.82337189744277
tp253
a(I314
F68.34554185409729
tp254
asI285
(lp255
(I205
F65.57998750690858
tp256
asI117
(lp257
(I133
F77.11417232367097
tp258
a(I165
F78.15877155023068
tp259
asI297
(lp260
(I305
F21.6513034304894
tp261
a(I313
F17.910812118826478
tp262
asI124
(lp263
(I156
F69.34205629891686
tp264
asI127
(lp265
(I143
F61.34319764576211
tp266
asag1
a.